target datalayout = "e-m:e-p270:32:32-p271:32:32-p272:64:64-i64:64-i128:128-f80:128-n8:16:32:64-S128"
target triple = "x86_64-pc-linux-gnu"

%"class.clang::SourceLocation" = type { i32 }
%"class.llvm::APInt" = type <{ %union.anon.386, i32, [4 x i8] }>
%union.anon.386 = type { i64 }
%"struct.std::_Rb_tree_header" = type { %"struct.std::_Rb_tree_node_base", i64 }
%"struct.std::_Rb_tree_node_base" = type { i32, ptr, ptr, ptr }
%"class.std::_Rb_tree.1677" = type { %"struct.std::_Rb_tree<llvm::APSInt, std::pair<const llvm::APSInt, clang::SourceLocation>, std::_Select1st<std::pair<const llvm::APSInt, clang::SourceLocation>>, APSIntCompare>::_Rb_tree_impl" }
%"struct.std::_Rb_tree<llvm::APSInt, std::pair<const llvm::APSInt, clang::SourceLocation>, std::_Select1st<std::pair<const llvm::APSInt, clang::SourceLocation>>, APSIntCompare>::_Rb_tree_impl" = type { [8 x i8], %"struct.std::_Rb_tree_header" }
%"struct.std::pair.1697" = type { %"class.llvm::APSInt", %"class.clang::SourceLocation", [4 x i8] }
%"class.llvm::APSInt" = type { %"class.llvm::APInt.base", i8, [3 x i8] }
%"class.llvm::APInt.base" = type <{ %union.anon.386, i32 }>
%"struct.std::_Rb_tree_node" = type { %"struct.std::_Rb_tree_node_base", %"struct.__gnu_cxx::__aligned_membuf" }
%"struct.__gnu_cxx::__aligned_membuf" = type { [24 x i8] }

; Function Attrs: mustprogress nounwind uwtable
define linkonce_odr hidden noundef zeroext i1 @_ZNK4llvm5APInt12isSingleWordEv(ptr noundef nonnull align 8 dereferenceable(12) %0) #0 comdat align 2 {
  %2 = alloca ptr, align 8
  store ptr %0, ptr %2, align 8
  %3 = load ptr, ptr %2, align 8
  %4 = getelementptr inbounds nuw %"class.llvm::APInt", ptr %3, i32 0, i32 1
  %5 = load i32, ptr %4, align 8
  %6 = icmp ule i32 %5, 64
  ret i1 %6
}

; Function Attrs: mustprogress nounwind uwtable
define linkonce_odr hidden noundef zeroext i1 @_ZNK4llvm5APInt12needsCleanupEv(ptr noundef nonnull align 8 dereferenceable(12) %0) #0 comdat align 2 {
  %2 = alloca ptr, align 8
  store ptr %0, ptr %2, align 8
  %3 = load ptr, ptr %2, align 8
  %4 = call noundef zeroext i1 @_ZNK4llvm5APInt12isSingleWordEv(ptr noundef nonnull align 8 dereferenceable(12) %3)
  %5 = xor i1 %4, true
  ret i1 %5
}

; Function Attrs: mustprogress nounwind uwtable
define linkonce_odr hidden void @_ZN4llvm5APIntD2Ev(ptr noundef nonnull align 8 dereferenceable(12) %0) unnamed_addr #0 comdat align 2 {
  %2 = alloca ptr, align 8
  store ptr %0, ptr %2, align 8
  %3 = load ptr, ptr %2, align 8
  %4 = call noundef zeroext i1 @_ZNK4llvm5APInt12needsCleanupEv(ptr noundef nonnull align 8 dereferenceable(12) %3)
  br i1 %4, label %5, label %11

5:                                                ; preds = %1
  %6 = getelementptr inbounds nuw %"class.llvm::APInt", ptr %3, i32 0, i32 0
  %7 = load ptr, ptr %6, align 8
  %8 = icmp eq ptr %7, null
  br i1 %8, label %10, label %9

9:                                                ; preds = %5
  call void @_ZdaPv(ptr noundef %7) #16
  br label %10

10:                                               ; preds = %9, %5
  br label %11

11:                                               ; preds = %10, %1
  ret void
}

; Function Attrs: mustprogress nounwind uwtable
define linkonce_odr hidden void @_ZN4llvm6APSIntD2Ev(ptr noundef nonnull align 8 dereferenceable(13) %0) unnamed_addr #0 comdat align 2 {
  %2 = alloca ptr, align 8
  store ptr %0, ptr %2, align 8
  %3 = load ptr, ptr %2, align 8
  call void @_ZN4llvm5APIntD2Ev(ptr noundef nonnull align 8 dereferenceable(12) %3) #15
  ret void
}

; Function Attrs: mustprogress nounwind uwtable
define linkonce_odr hidden void @_ZNSt4pairIKN4llvm6APSIntEN5clang14SourceLocationEED2Ev(ptr noundef nonnull align 8 dereferenceable(20) %0) unnamed_addr #0 comdat align 2 {
  %2 = alloca ptr, align 8
  store ptr %0, ptr %2, align 8
  %3 = load ptr, ptr %2, align 8
  %4 = getelementptr inbounds nuw %"struct.std::pair.1697", ptr %3, i32 0, i32 0
  call void @_ZN4llvm6APSIntD2Ev(ptr noundef nonnull align 8 dereferenceable(13) %4) #15
  ret void
}

; Function Attrs: mustprogress nounwind uwtable
define linkonce_odr hidden noundef ptr @_ZN9__gnu_cxx16__aligned_membufISt4pairIKN4llvm6APSIntEN5clang14SourceLocationEEE7_M_addrEv(ptr noundef nonnull align 8 dereferenceable(24) %0) #0 comdat align 2 {
  %2 = alloca ptr, align 8
  store ptr %0, ptr %2, align 8
  %3 = load ptr, ptr %2, align 8
  %4 = getelementptr inbounds nuw %"struct.__gnu_cxx::__aligned_membuf", ptr %3, i32 0, i32 0
  ret ptr %4
}

; Function Attrs: mustprogress nounwind uwtable
define linkonce_odr hidden void @_ZNSt15__new_allocatorISt13_Rb_tree_nodeISt4pairIKN4llvm6APSIntEN5clang14SourceLocationEEEE10deallocateEPS8_m(ptr noundef nonnull align 1 dereferenceable(1) %0, ptr noundef %1, i64 noundef %2) #0 comdat align 2 {
  %4 = alloca ptr, align 8
  %5 = alloca ptr, align 8
  %6 = alloca i64, align 8
  store ptr %0, ptr %4, align 8
  store ptr %1, ptr %5, align 8
  store i64 %2, ptr %6, align 8
  %7 = load ptr, ptr %5, align 8
  %8 = load i64, ptr %6, align 8
  %9 = mul i64 %8, 56
  call void @_ZdlPvm(ptr noundef %7, i64 noundef %9) #16
  ret void
}

; Function Attrs: mustprogress nounwind uwtable
define linkonce_odr hidden void @_ZNSt15__new_allocatorISt13_Rb_tree_nodeISt4pairIKN4llvm6APSIntEN5clang14SourceLocationEEEE7destroyIS7_EEvPT_(ptr noundef nonnull align 1 dereferenceable(1) %0, ptr noundef %1) #0 comdat align 2 {
  %3 = alloca ptr, align 8
  %4 = alloca ptr, align 8
  store ptr %0, ptr %3, align 8
  store ptr %1, ptr %4, align 8
  %5 = load ptr, ptr %4, align 8
  call void @_ZNSt4pairIKN4llvm6APSIntEN5clang14SourceLocationEED2Ev(ptr noundef nonnull align 8 dereferenceable(20) %5) #15
  ret void
}

; Function Attrs: mustprogress nounwind uwtable
define linkonce_odr hidden noundef ptr @_ZN9__gnu_cxx16__aligned_membufISt4pairIKN4llvm6APSIntEN5clang14SourceLocationEEE6_M_ptrEv(ptr noundef nonnull align 8 dereferenceable(24) %0) #0 comdat align 2 {
  %2 = alloca ptr, align 8
  store ptr %0, ptr %2, align 8
  %3 = load ptr, ptr %2, align 8
  %4 = call noundef ptr @_ZN9__gnu_cxx16__aligned_membufISt4pairIKN4llvm6APSIntEN5clang14SourceLocationEEE7_M_addrEv(ptr noundef nonnull align 8 dereferenceable(24) %3) #15
  ret ptr %4
}

; Function Attrs: mustprogress nounwind uwtable
define linkonce_odr hidden void @_ZNSt16allocator_traitsISaISt13_Rb_tree_nodeISt4pairIKN4llvm6APSIntEN5clang14SourceLocationEEEEE10deallocateERS9_PS8_m(ptr noundef nonnull align 1 dereferenceable(1) %0, ptr noundef %1, i64 noundef %2) #0 comdat align 2 {
  %4 = alloca ptr, align 8
  %5 = alloca ptr, align 8
  %6 = alloca i64, align 8
  store ptr %0, ptr %4, align 8
  store ptr %1, ptr %5, align 8
  store i64 %2, ptr %6, align 8
  %7 = load ptr, ptr %4, align 8
  %8 = load ptr, ptr %5, align 8
  %9 = load i64, ptr %6, align 8
  call void @_ZNSt15__new_allocatorISt13_Rb_tree_nodeISt4pairIKN4llvm6APSIntEN5clang14SourceLocationEEEE10deallocateEPS8_m(ptr noundef nonnull align 1 dereferenceable(1) %7, ptr noundef %8, i64 noundef %9)
  ret void
}

; Function Attrs: mustprogress nounwind uwtable
define linkonce_odr hidden void @_ZNSt16allocator_traitsISaISt13_Rb_tree_nodeISt4pairIKN4llvm6APSIntEN5clang14SourceLocationEEEEE7destroyIS7_EEvRS9_PT_(ptr noundef nonnull align 1 dereferenceable(1) %0, ptr noundef %1) #0 comdat align 2 {
  %3 = alloca ptr, align 8
  %4 = alloca ptr, align 8
  store ptr %0, ptr %3, align 8
  store ptr %1, ptr %4, align 8
  %5 = load ptr, ptr %3, align 8
  %6 = load ptr, ptr %4, align 8
  call void @_ZNSt15__new_allocatorISt13_Rb_tree_nodeISt4pairIKN4llvm6APSIntEN5clang14SourceLocationEEEE7destroyIS7_EEvPT_(ptr noundef nonnull align 1 dereferenceable(1) %5, ptr noundef %6) #15
  ret void
}

; Function Attrs: mustprogress nounwind uwtable
define linkonce_odr hidden noundef ptr @_ZNSt13_Rb_tree_nodeISt4pairIKN4llvm6APSIntEN5clang14SourceLocationEEE9_M_valptrEv(ptr noundef nonnull align 8 dereferenceable(56) %0) #0 comdat align 2 {
  %2 = alloca ptr, align 8
  store ptr %0, ptr %2, align 8
  %3 = load ptr, ptr %2, align 8
  %4 = getelementptr inbounds nuw %"struct.std::_Rb_tree_node", ptr %3, i32 0, i32 1
  %5 = call noundef ptr @_ZN9__gnu_cxx16__aligned_membufISt4pairIKN4llvm6APSIntEN5clang14SourceLocationEEE6_M_ptrEv(ptr noundef nonnull align 8 dereferenceable(24) %4) #15
  ret ptr %5
}

; Function Attrs: mustprogress nounwind uwtable
define internal noundef nonnull align 1 dereferenceable(1) ptr @_ZNSt8_Rb_treeIN4llvm6APSIntESt4pairIKS1_N5clang14SourceLocationEESt10_Select1stIS6_EZL39CheckObjCDictionaryLiteralDuplicateKeysRNS4_4SemaEPNS4_21ObjCDictionaryLiteralEE13APSIntCompareSaIS6_EE21_M_get_Node_allocatorEv(ptr noundef nonnull align 8 dereferenceable(48) %0) #0 align 2 {
  %2 = alloca ptr, align 8
  store ptr %0, ptr %2, align 8
  %3 = load ptr, ptr %2, align 8
  %4 = getelementptr inbounds nuw %"class.std::_Rb_tree.1677", ptr %3, i32 0, i32 0
  ret ptr %4
}

; Function Attrs: mustprogress nounwind uwtable
define internal void @_ZNSt8_Rb_treeIN4llvm6APSIntESt4pairIKS1_N5clang14SourceLocationEESt10_Select1stIS6_EZL39CheckObjCDictionaryLiteralDuplicateKeysRNS4_4SemaEPNS4_21ObjCDictionaryLiteralEE13APSIntCompareSaIS6_EE11_M_put_nodeEPSt13_Rb_tree_nodeIS6_E(ptr noundef nonnull align 8 dereferenceable(48) %0, ptr noundef %1) #0 align 2 {
  %3 = alloca ptr, align 8
  %4 = alloca ptr, align 8
  store ptr %0, ptr %3, align 8
  store ptr %1, ptr %4, align 8
  %5 = load ptr, ptr %3, align 8
  %6 = call noundef nonnull align 1 dereferenceable(1) ptr @_ZNSt8_Rb_treeIN4llvm6APSIntESt4pairIKS1_N5clang14SourceLocationEESt10_Select1stIS6_EZL39CheckObjCDictionaryLiteralDuplicateKeysRNS4_4SemaEPNS4_21ObjCDictionaryLiteralEE13APSIntCompareSaIS6_EE21_M_get_Node_allocatorEv(ptr noundef nonnull align 8 dereferenceable(48) %5) #15
  %7 = load ptr, ptr %4, align 8
  call void @_ZNSt16allocator_traitsISaISt13_Rb_tree_nodeISt4pairIKN4llvm6APSIntEN5clang14SourceLocationEEEEE10deallocateERS9_PS8_m(ptr noundef nonnull align 1 dereferenceable(1) %6, ptr noundef %7, i64 noundef 1)
  ret void
}

; Function Attrs: mustprogress nounwind uwtable
define internal void @_ZNSt8_Rb_treeIN4llvm6APSIntESt4pairIKS1_N5clang14SourceLocationEESt10_Select1stIS6_EZL39CheckObjCDictionaryLiteralDuplicateKeysRNS4_4SemaEPNS4_21ObjCDictionaryLiteralEE13APSIntCompareSaIS6_EE15_M_destroy_nodeEPSt13_Rb_tree_nodeIS6_E(ptr noundef nonnull align 8 dereferenceable(48) %0, ptr noundef %1) #0 align 2 {
  %3 = alloca ptr, align 8
  %4 = alloca ptr, align 8
  store ptr %0, ptr %3, align 8
  store ptr %1, ptr %4, align 8
  %5 = load ptr, ptr %3, align 8
  %6 = call noundef nonnull align 1 dereferenceable(1) ptr @_ZNSt8_Rb_treeIN4llvm6APSIntESt4pairIKS1_N5clang14SourceLocationEESt10_Select1stIS6_EZL39CheckObjCDictionaryLiteralDuplicateKeysRNS4_4SemaEPNS4_21ObjCDictionaryLiteralEE13APSIntCompareSaIS6_EE21_M_get_Node_allocatorEv(ptr noundef nonnull align 8 dereferenceable(48) %5) #15
  %7 = load ptr, ptr %4, align 8
  %8 = call noundef ptr @_ZNSt13_Rb_tree_nodeISt4pairIKN4llvm6APSIntEN5clang14SourceLocationEEE9_M_valptrEv(ptr noundef nonnull align 8 dereferenceable(56) %7)
  call void @_ZNSt16allocator_traitsISaISt13_Rb_tree_nodeISt4pairIKN4llvm6APSIntEN5clang14SourceLocationEEEEE7destroyIS7_EEvRS9_PT_(ptr noundef nonnull align 1 dereferenceable(1) %6, ptr noundef %8) #15
  ret void
}

; Function Attrs: mustprogress nounwind uwtable
define internal void @_ZNSt8_Rb_treeIN4llvm6APSIntESt4pairIKS1_N5clang14SourceLocationEESt10_Select1stIS6_EZL39CheckObjCDictionaryLiteralDuplicateKeysRNS4_4SemaEPNS4_21ObjCDictionaryLiteralEE13APSIntCompareSaIS6_EE12_M_drop_nodeEPSt13_Rb_tree_nodeIS6_E(ptr noundef nonnull align 8 dereferenceable(48) %0, ptr noundef %1) #0 align 2 {
  %3 = alloca ptr, align 8
  %4 = alloca ptr, align 8
  store ptr %0, ptr %3, align 8
  store ptr %1, ptr %4, align 8
  %5 = load ptr, ptr %3, align 8
  %6 = load ptr, ptr %4, align 8
  call void @_ZNSt8_Rb_treeIN4llvm6APSIntESt4pairIKS1_N5clang14SourceLocationEESt10_Select1stIS6_EZL39CheckObjCDictionaryLiteralDuplicateKeysRNS4_4SemaEPNS4_21ObjCDictionaryLiteralEE13APSIntCompareSaIS6_EE15_M_destroy_nodeEPSt13_Rb_tree_nodeIS6_E(ptr noundef nonnull align 8 dereferenceable(48) %5, ptr noundef %6) #15
  %7 = load ptr, ptr %4, align 8
  call void @_ZNSt8_Rb_treeIN4llvm6APSIntESt4pairIKS1_N5clang14SourceLocationEESt10_Select1stIS6_EZL39CheckObjCDictionaryLiteralDuplicateKeysRNS4_4SemaEPNS4_21ObjCDictionaryLiteralEE13APSIntCompareSaIS6_EE11_M_put_nodeEPSt13_Rb_tree_nodeIS6_E(ptr noundef nonnull align 8 dereferenceable(48) %5, ptr noundef %7) #15
  ret void
}

; Function Attrs: mustprogress nounwind uwtable
define internal noundef ptr @_ZNSt8_Rb_treeIN4llvm6APSIntESt4pairIKS1_N5clang14SourceLocationEESt10_Select1stIS6_EZL39CheckObjCDictionaryLiteralDuplicateKeysRNS4_4SemaEPNS4_21ObjCDictionaryLiteralEE13APSIntCompareSaIS6_EE7_S_leftEPSt18_Rb_tree_node_base(ptr noundef %0) #0 align 2 {
  %2 = alloca ptr, align 8
  store ptr %0, ptr %2, align 8
  %3 = load ptr, ptr %2, align 8
  %4 = getelementptr inbounds nuw %"struct.std::_Rb_tree_node_base", ptr %3, i32 0, i32 2
  %5 = load ptr, ptr %4, align 8
  ret ptr %5
}

; Function Attrs: mustprogress nounwind uwtable
define internal noundef ptr @_ZNSt8_Rb_treeIN4llvm6APSIntESt4pairIKS1_N5clang14SourceLocationEESt10_Select1stIS6_EZL39CheckObjCDictionaryLiteralDuplicateKeysRNS4_4SemaEPNS4_21ObjCDictionaryLiteralEE13APSIntCompareSaIS6_EE8_S_rightEPSt18_Rb_tree_node_base(ptr noundef %0) #0 align 2 {
  %2 = alloca ptr, align 8
  store ptr %0, ptr %2, align 8
  %3 = load ptr, ptr %2, align 8
  %4 = getelementptr inbounds nuw %"struct.std::_Rb_tree_node_base", ptr %3, i32 0, i32 3
  %5 = load ptr, ptr %4, align 8
  ret ptr %5
}

; Function Attrs: mustprogress nounwind uwtable
define internal void @_ZNSt8_Rb_treeIN4llvm6APSIntESt4pairIKS1_N5clang14SourceLocationEESt10_Select1stIS6_EZL39CheckObjCDictionaryLiteralDuplicateKeysRNS4_4SemaEPNS4_21ObjCDictionaryLiteralEE13APSIntCompareSaIS6_EE8_M_eraseEPSt13_Rb_tree_nodeIS6_E(ptr noundef nonnull align 8 dereferenceable(48) %0, ptr noundef %1) #0 align 2 {
  %3 = alloca ptr, align 8
  %4 = alloca ptr, align 8
  %5 = alloca ptr, align 8
  store ptr %0, ptr %3, align 8
  store ptr %1, ptr %4, align 8
  %6 = load ptr, ptr %3, align 8
  br label %7

7:                                                ; preds = %10, %2
  %8 = load ptr, ptr %4, align 8
  %9 = icmp ne ptr %8, null
  br i1 %9, label %10, label %17

10:                                               ; preds = %7
  %11 = load ptr, ptr %4, align 8
  %12 = call noundef ptr @_ZNSt8_Rb_treeIN4llvm6APSIntESt4pairIKS1_N5clang14SourceLocationEESt10_Select1stIS6_EZL39CheckObjCDictionaryLiteralDuplicateKeysRNS4_4SemaEPNS4_21ObjCDictionaryLiteralEE13APSIntCompareSaIS6_EE8_S_rightEPSt18_Rb_tree_node_base(ptr noundef %11) #15
  call void @_ZNSt8_Rb_treeIN4llvm6APSIntESt4pairIKS1_N5clang14SourceLocationEESt10_Select1stIS6_EZL39CheckObjCDictionaryLiteralDuplicateKeysRNS4_4SemaEPNS4_21ObjCDictionaryLiteralEE13APSIntCompareSaIS6_EE8_M_eraseEPSt13_Rb_tree_nodeIS6_E(ptr noundef nonnull align 8 dereferenceable(48) %6, ptr noundef %12)
  %13 = load ptr, ptr %4, align 8
  %14 = call noundef ptr @_ZNSt8_Rb_treeIN4llvm6APSIntESt4pairIKS1_N5clang14SourceLocationEESt10_Select1stIS6_EZL39CheckObjCDictionaryLiteralDuplicateKeysRNS4_4SemaEPNS4_21ObjCDictionaryLiteralEE13APSIntCompareSaIS6_EE7_S_leftEPSt18_Rb_tree_node_base(ptr noundef %13) #15
  store ptr %14, ptr %5, align 8
  %15 = load ptr, ptr %4, align 8
  call void @_ZNSt8_Rb_treeIN4llvm6APSIntESt4pairIKS1_N5clang14SourceLocationEESt10_Select1stIS6_EZL39CheckObjCDictionaryLiteralDuplicateKeysRNS4_4SemaEPNS4_21ObjCDictionaryLiteralEE13APSIntCompareSaIS6_EE12_M_drop_nodeEPSt13_Rb_tree_nodeIS6_E(ptr noundef nonnull align 8 dereferenceable(48) %6, ptr noundef %15) #15
  %16 = load ptr, ptr %5, align 8
  store ptr %16, ptr %4, align 8
  br label %7, !llvm.loop !37

17:                                               ; preds = %7
  ret void
}