; Function Attrs: mustprogress nounwind uwtable
define internal fastcc void @_ZNSt8_Rb_treeIN4llvm6APSIntESt4pairIKS1_N5clang14SourceLocationEESt10_Select1stIS6_EZL39CheckObjCDictionaryLiteralDuplicateKeysRNS4_4SemaEPNS4_21ObjCDictionaryLiteralEE13APSIntCompareSaIS6_EE8_M_eraseEPSt13_Rb_tree_nodeIS6_E(ptr noundef %0) unnamed_addr #0 align 2 {
  %.not1 = icmp eq ptr %0, null
  br i1 %.not1, label %._crit_edge, label %.lr.ph

.lr.ph:                                           ; preds = %1, %_ZNSt8_Rb_treeIN4llvm6APSIntESt4pairIKS1_N5clang14SourceLocationEESt10_Select1stIS6_EZL39CheckObjCDictionaryLiteralDuplicateKeysRNS4_4SemaEPNS4_21ObjCDictionaryLiteralEE13APSIntCompareSaIS6_EE12_M_drop_nodeEPSt13_Rb_tree_nodeIS6_E.exit
  %.02 = phi ptr [ %.0.val, %_ZNSt8_Rb_treeIN4llvm6APSIntESt4pairIKS1_N5clang14SourceLocationEESt10_Select1stIS6_EZL39CheckObjCDictionaryLiteralDuplicateKeysRNS4_4SemaEPNS4_21ObjCDictionaryLiteralEE13APSIntCompareSaIS6_EE12_M_drop_nodeEPSt13_Rb_tree_nodeIS6_E.exit ], [ %0, %1 ]
  %2 = getelementptr i8, ptr %.02, i64 24
  %.0.val6 = load ptr, ptr %2, align 8
  tail call fastcc void @_ZNSt8_Rb_treeIN4llvm6APSIntESt4pairIKS1_N5clang14SourceLocationEESt10_Select1stIS6_EZL39CheckObjCDictionaryLiteralDuplicateKeysRNS4_4SemaEPNS4_21ObjCDictionaryLiteralEE13APSIntCompareSaIS6_EE8_M_eraseEPSt13_Rb_tree_nodeIS6_E(ptr noundef %.0.val6)
  %3 = getelementptr i8, ptr %.02, i64 16
  %.0.val = load ptr, ptr %3, align 8
  %4 = getelementptr inbounds i8, ptr %.02, i64 40
  %5 = load i32, ptr %4, align 8
  %6 = icmp ugt i32 %5, 64
  br i1 %6, label %7, label %_ZNSt8_Rb_treeIN4llvm6APSIntESt4pairIKS1_N5clang14SourceLocationEESt10_Select1stIS6_EZL39CheckObjCDictionaryLiteralDuplicateKeysRNS4_4SemaEPNS4_21ObjCDictionaryLiteralEE13APSIntCompareSaIS6_EE12_M_drop_nodeEPSt13_Rb_tree_nodeIS6_E.exit

7:                                                ; preds = %.lr.ph
  %8 = getelementptr inbounds nuw i8, ptr %.02, i64 32
  %9 = load ptr, ptr %8, align 8
  %10 = icmp eq ptr %9, null
  br i1 %10, label %_ZNSt8_Rb_treeIN4llvm6APSIntESt4pairIKS1_N5clang14SourceLocationEESt10_Select1stIS6_EZL39CheckObjCDictionaryLiteralDuplicateKeysRNS4_4SemaEPNS4_21ObjCDictionaryLiteralEE13APSIntCompareSaIS6_EE12_M_drop_nodeEPSt13_Rb_tree_nodeIS6_E.exit, label %11

11:                                               ; preds = %7
  tail call void @_ZdaPv(ptr noundef nonnull %9) #20
  br label %_ZNSt8_Rb_treeIN4llvm6APSIntESt4pairIKS1_N5clang14SourceLocationEESt10_Select1stIS6_EZL39CheckObjCDictionaryLiteralDuplicateKeysRNS4_4SemaEPNS4_21ObjCDictionaryLiteralEE13APSIntCompareSaIS6_EE12_M_drop_nodeEPSt13_Rb_tree_nodeIS6_E.exit

_ZNSt8_Rb_treeIN4llvm6APSIntESt4pairIKS1_N5clang14SourceLocationEESt10_Select1stIS6_EZL39CheckObjCDictionaryLiteralDuplicateKeysRNS4_4SemaEPNS4_21ObjCDictionaryLiteralEE13APSIntCompareSaIS6_EE12_M_drop_nodeEPSt13_Rb_tree_nodeIS6_E.exit: ; preds = %.lr.ph, %7, %11
  tail call void @_ZdlPvm(ptr noundef nonnull %.02, i64 noundef 56) #20
  %.not = icmp eq ptr %.0.val, null
  br i1 %.not, label %._crit_edge, label %.lr.ph, !llvm.loop !160

._crit_edge:                                      ; preds = %_ZNSt8_Rb_treeIN4llvm6APSIntESt4pairIKS1_N5clang14SourceLocationEESt10_Select1stIS6_EZL39CheckObjCDictionaryLiteralDuplicateKeysRNS4_4SemaEPNS4_21ObjCDictionaryLiteralEE13APSIntCompareSaIS6_EE12_M_drop_nodeEPSt13_Rb_tree_nodeIS6_E.exit, %1
  ret void
}